target datalayout = "e-m:e-p270:32:32-p271:32:32-p272:64:64-i64:64-i128:128-f80:128-n8:16:32:64-S128"
target triple = "x86_64-unknown-linux-gnu"

%struct.btBroadphasePair = type { ptr, ptr, ptr, %union.anon.4 }
%union.anon.4 = type { ptr }

; Function Attrs: mustprogress uwtable
define dso_local void @_ZN28btSortedOverlappingPairCache20cleanOverlappingPairER16btBroadphasePairP12btDispatcher(ptr noundef nonnull align 8 dereferenceable(64) %this, ptr noundef nonnull align 8 dereferenceable(32) %pair, ptr noundef %dispatcher) unnamed_addr #2 align 2 {
entry:
  %this.addr = alloca ptr, align 8
  %pair.addr = alloca ptr, align 8
  %dispatcher.addr = alloca ptr, align 8
  store ptr %this, ptr %this.addr, align 8
  store ptr %pair, ptr %pair.addr, align 8
  store ptr %dispatcher, ptr %dispatcher.addr, align 8
  %0 = load ptr, ptr %pair.addr, align 8
  %m_algorithm = getelementptr inbounds %struct.btBroadphasePair, ptr %0, i32 0, i32 2
  %1 = load ptr, ptr %m_algorithm, align 8
  %tobool = icmp ne ptr %1, null
  br i1 %tobool, label %if.then, label %if.end

if.then:                                          ; preds = %entry
  %2 = load ptr, ptr %pair.addr, align 8
  %m_algorithm2 = getelementptr inbounds %struct.btBroadphasePair, ptr %2, i32 0, i32 2
  %3 = load ptr, ptr %m_algorithm2, align 8
  %vtable = load ptr, ptr %3, align 8
  %vfn = getelementptr inbounds ptr, ptr %vtable, i64 0
  %4 = load ptr, ptr %vfn, align 8
  call void %4(ptr noundef nonnull align 8 dereferenceable(16) %3) #10
  %5 = load ptr, ptr %dispatcher.addr, align 8
  %6 = load ptr, ptr %pair.addr, align 8
  %m_algorithm3 = getelementptr inbounds %struct.btBroadphasePair, ptr %6, i32 0, i32 2
  %7 = load ptr, ptr %m_algorithm3, align 8
  %vtable4 = load ptr, ptr %5, align 8
  %vfn5 = getelementptr inbounds ptr, ptr %vtable4, i64 15
  %8 = load ptr, ptr %vfn5, align 8
  call void %8(ptr noundef nonnull align 8 dereferenceable(8) %5, ptr noundef %7)
  %9 = load ptr, ptr %pair.addr, align 8
  %m_algorithm6 = getelementptr inbounds %struct.btBroadphasePair, ptr %9, i32 0, i32 2
  store ptr null, ptr %m_algorithm6, align 8
  br label %if.end

if.end:                                           ; preds = %if.then, %entry
  ret void
}