; Function Attrs: mustprogress uwtable
define dso_local void @_ZN28btSortedOverlappingPairCache20cleanOverlappingPairER16btBroadphasePairP12btDispatcher(ptr nocapture nonnull readnone align 8 %this, ptr nocapture noundef nonnull align 8 dereferenceable(32) %pair, ptr noundef %dispatcher) unnamed_addr #0 align 2 {
entry:
  %m_algorithm = getelementptr inbounds i8, ptr %pair, i64 16
  %0 = load ptr, ptr %m_algorithm, align 8
  %tobool.not = icmp eq ptr %0, null
  br i1 %tobool.not, label %if.end, label %if.then

if.then:                                          ; preds = %entry
  %vtable = load ptr, ptr %0, align 8
  %1 = load ptr, ptr %vtable, align 8
  tail call void %1(ptr noundef nonnull align 8 dereferenceable(16) %0) #12
  %2 = load ptr, ptr %m_algorithm, align 8
  %vtable4 = load ptr, ptr %dispatcher, align 8
  %vfn5 = getelementptr inbounds i8, ptr %vtable4, i64 120
  %3 = load ptr, ptr %vfn5, align 8
  tail call void %3(ptr noundef nonnull align 8 dereferenceable(8) %dispatcher, ptr noundef %2)
  store ptr null, ptr %m_algorithm, align 8
  br label %if.end

if.end:                                           ; preds = %if.then, %entry
  ret void
}